target datalayout = "e-m:e-p270:32:32-p271:32:32-p272:64:64-i64:64-i128:128-f80:128-n8:16:32:64-S128"
target triple = "x86_64-pc-linux-gnu"

; Function Attrs: inlinehint mustprogress nounwind uwtable
define linkonce_odr noundef nonnull align 8 dereferenceable(8) ptr @_ZSt3maxIdERKT_S2_S2_(ptr noundef nonnull align 8 dereferenceable(8) %0, ptr noundef nonnull align 8 dereferenceable(8) %1) #7 comdat {
  %3 = alloca ptr, align 8
  %4 = alloca ptr, align 8
  %5 = alloca ptr, align 8
  store ptr %0, ptr %4, align 8, !tbaa !12
  store ptr %1, ptr %5, align 8, !tbaa !12
  %6 = load ptr, ptr %4, align 8, !tbaa !12
  %7 = load double, ptr %6, align 8, !tbaa !10
  %8 = load ptr, ptr %5, align 8, !tbaa !12
  %9 = load double, ptr %8, align 8, !tbaa !10
  %10 = fcmp olt double %7, %9
  br i1 %10, label %11, label %13

11:                                               ; preds = %2
  %12 = load ptr, ptr %5, align 8, !tbaa !12
  store ptr %12, ptr %3, align 8
  br label %15

13:                                               ; preds = %2
  %14 = load ptr, ptr %4, align 8, !tbaa !12
  store ptr %14, ptr %3, align 8
  br label %15

15:                                               ; preds = %13, %11
  %16 = load ptr, ptr %3, align 8
  ret ptr %16
}

; Function Attrs: mustprogress uwtable
define internal noundef double @_ZN20minEnclosingTriangleL7maximumEddd(double noundef %0, double noundef %1, double noundef %2) #0 {
  %4 = alloca double, align 8
  %5 = alloca double, align 8
  %6 = alloca double, align 8
  store double %0, ptr %4, align 8, !tbaa !10
  store double %1, ptr %5, align 8, !tbaa !10
  store double %2, ptr %6, align 8, !tbaa !10
  %7 = call noundef nonnull align 8 dereferenceable(8) ptr @_ZSt3maxIdERKT_S2_S2_(ptr noundef nonnull align 8 dereferenceable(8) %4, ptr noundef nonnull align 8 dereferenceable(8) %5)
  %8 = call noundef nonnull align 8 dereferenceable(8) ptr @_ZSt3maxIdERKT_S2_S2_(ptr noundef nonnull align 8 dereferenceable(8) %7, ptr noundef nonnull align 8 dereferenceable(8) %6)
  %9 = load double, ptr %8, align 8, !tbaa !10
  ret double %9
}

; Function Attrs: mustprogress uwtable
define internal noundef zeroext i1 @_ZN20minEnclosingTriangleL11almostEqualEdd(double noundef %0, double noundef %1) #0 {
  %3 = alloca double, align 8
  %4 = alloca double, align 8
  store double %0, ptr %3, align 8, !tbaa !10
  store double %1, ptr %4, align 8, !tbaa !10
  %5 = load double, ptr %3, align 8, !tbaa !10
  %6 = load double, ptr %4, align 8, !tbaa !10
  %7 = fsub double %5, %6
  %8 = call noundef double @_ZSt3absd(double noundef %7)
  %9 = load double, ptr %3, align 8, !tbaa !10
  %10 = call noundef double @_ZSt3absd(double noundef %9)
  %11 = load double, ptr %4, align 8, !tbaa !10
  %12 = call noundef double @_ZSt3absd(double noundef %11)
  %13 = call noundef double @_ZN20minEnclosingTriangleL7maximumEddd(double noundef 1.000000e+00, double noundef %10, double noundef %12)
  %14 = fmul double 1.000000e-05, %13
  %15 = fcmp ole double %8, %14
  ret i1 %15
}

; Function Attrs: mustprogress nounwind uwtable
define internal noundef zeroext i1 @_ZN20minEnclosingTriangleL14isAngleBetweenEddd(double noundef %0, double noundef %1, double noundef %2) #4 {
  %4 = alloca i1, align 1
  %5 = alloca double, align 8
  %6 = alloca double, align 8
  %7 = alloca double, align 8
  store double %0, ptr %5, align 8, !tbaa !10
  store double %1, ptr %6, align 8, !tbaa !10
  store double %2, ptr %7, align 8, !tbaa !10
  %8 = load double, ptr %6, align 8, !tbaa !10
  %9 = load double, ptr %7, align 8, !tbaa !10
  %10 = fsub double %8, %9
  %11 = fptosi double %10 to i32
  %12 = srem i32 %11, 180
  %13 = icmp sgt i32 %12, 0
  br i1 %13, label %14, label %24

14:                                               ; preds = %3
  %15 = load double, ptr %7, align 8, !tbaa !10
  %16 = load double, ptr %5, align 8, !tbaa !10
  %17 = fcmp olt double %15, %16
  br i1 %17, label %18, label %22

18:                                               ; preds = %14
  %19 = load double, ptr %5, align 8, !tbaa !10
  %20 = load double, ptr %6, align 8, !tbaa !10
  %21 = fcmp olt double %19, %20
  br label %22

22:                                               ; preds = %18, %14
  %23 = phi i1 [ false, %14 ], [ %21, %18 ]
  store i1 %23, ptr %4, align 1
  br label %34

24:                                               ; preds = %3
  %25 = load double, ptr %6, align 8, !tbaa !10
  %26 = load double, ptr %5, align 8, !tbaa !10
  %27 = fcmp olt double %25, %26
  br i1 %27, label %28, label %32

28:                                               ; preds = %24
  %29 = load double, ptr %5, align 8, !tbaa !10
  %30 = load double, ptr %7, align 8, !tbaa !10
  %31 = fcmp olt double %29, %30
  br label %32

32:                                               ; preds = %28, %24
  %33 = phi i1 [ false, %24 ], [ %31, %28 ]
  store i1 %33, ptr %4, align 1
  br label %34

34:                                               ; preds = %32, %22
  %35 = load i1, ptr %4, align 1
  ret i1 %35
}

; Function Attrs: mustprogress uwtable
define internal noundef zeroext i1 @_ZN20minEnclosingTriangleL11lessOrEqualEdd(double noundef %0, double noundef %1) #0 {
  %3 = alloca double, align 8
  %4 = alloca double, align 8
  store double %0, ptr %3, align 8, !tbaa !10
  store double %1, ptr %4, align 8, !tbaa !10
  %5 = load double, ptr %3, align 8, !tbaa !10
  %6 = load double, ptr %4, align 8, !tbaa !10
  %7 = fcmp olt double %5, %6
  br i1 %7, label %12, label %8

8:                                                ; preds = %2
  %9 = load double, ptr %3, align 8, !tbaa !10
  %10 = load double, ptr %4, align 8, !tbaa !10
  %11 = call noundef zeroext i1 @_ZN20minEnclosingTriangleL11almostEqualEdd(double noundef %9, double noundef %10)
  br label %12

12:                                               ; preds = %8, %2
  %13 = phi i1 [ true, %2 ], [ %11, %8 ]
  ret i1 %13
}

; Function Attrs: inlinehint mustprogress nounwind uwtable
define linkonce_odr noundef double @_ZSt3absd(double noundef %0) #7 comdat {
  %2 = alloca double, align 8
  store double %0, ptr %2, align 8, !tbaa !10
  %3 = load double, ptr %2, align 8, !tbaa !10
  %4 = call double @llvm.fabs.f64(double %3)
  ret double %4
}

; Function Attrs: mustprogress uwtable
define internal noundef zeroext i1 @_ZN20minEnclosingTriangleL23isAngleBetweenNonReflexEddd(double noundef %0, double noundef %1, double noundef %2) #0 {
  %4 = alloca i1, align 1
  %5 = alloca double, align 8
  %6 = alloca double, align 8
  %7 = alloca double, align 8
  store double %0, ptr %5, align 8, !tbaa !10
  store double %1, ptr %6, align 8, !tbaa !10
  store double %2, ptr %7, align 8, !tbaa !10
  %8 = load double, ptr %6, align 8, !tbaa !10
  %9 = load double, ptr %7, align 8, !tbaa !10
  %10 = fsub double %8, %9
  %11 = call noundef double @_ZSt3absd(double noundef %10)
  %12 = fcmp ogt double %11, 1.800000e+02
  br i1 %12, label %13, label %53

13:                                               ; preds = %3
  %14 = load double, ptr %6, align 8, !tbaa !10
  %15 = load double, ptr %7, align 8, !tbaa !10
  %16 = fcmp ogt double %14, %15
  br i1 %16, label %17, label %35

17:                                               ; preds = %13
  %18 = load double, ptr %6, align 8, !tbaa !10
  %19 = load double, ptr %5, align 8, !tbaa !10
  %20 = fcmp olt double %18, %19
  br i1 %20, label %21, label %24

21:                                               ; preds = %17
  %22 = load double, ptr %5, align 8, !tbaa !10
  %23 = call noundef zeroext i1 @_ZN20minEnclosingTriangleL11lessOrEqualEdd(double noundef %22, double noundef 3.600000e+02)
  br i1 %23, label %33, label %24

24:                                               ; preds = %21, %17
  %25 = load double, ptr %5, align 8, !tbaa !10
  %26 = call noundef zeroext i1 @_ZN20minEnclosingTriangleL11lessOrEqualEdd(double noundef 0.000000e+00, double noundef %25)
  br i1 %26, label %27, label %31

27:                                               ; preds = %24
  %28 = load double, ptr %5, align 8, !tbaa !10
  %29 = load double, ptr %7, align 8, !tbaa !10
  %30 = fcmp olt double %28, %29
  br label %31

31:                                               ; preds = %27, %24
  %32 = phi i1 [ false, %24 ], [ %30, %27 ]
  br label %33

33:                                               ; preds = %31, %21
  %34 = phi i1 [ true, %21 ], [ %32, %31 ]
  store i1 %34, ptr %4, align 1
  br label %58

35:                                               ; preds = %13
  %36 = load double, ptr %7, align 8, !tbaa !10
  %37 = load double, ptr %5, align 8, !tbaa !10
  %38 = fcmp olt double %36, %37
  br i1 %38, label %39, label %42

39:                                               ; preds = %35
  %40 = load double, ptr %5, align 8, !tbaa !10
  %41 = call noundef zeroext i1 @_ZN20minEnclosingTriangleL11lessOrEqualEdd(double noundef %40, double noundef 3.600000e+02)
  br i1 %41, label %51, label %42

42:                                               ; preds = %39, %35
  %43 = load double, ptr %5, align 8, !tbaa !10
  %44 = call noundef zeroext i1 @_ZN20minEnclosingTriangleL11lessOrEqualEdd(double noundef 0.000000e+00, double noundef %43)
  br i1 %44, label %45, label %49

45:                                               ; preds = %42
  %46 = load double, ptr %5, align 8, !tbaa !10
  %47 = load double, ptr %6, align 8, !tbaa !10
  %48 = fcmp olt double %46, %47
  br label %49

49:                                               ; preds = %45, %42
  %50 = phi i1 [ false, %42 ], [ %48, %45 ]
  br label %51

51:                                               ; preds = %49, %39
  %52 = phi i1 [ true, %39 ], [ %50, %49 ]
  store i1 %52, ptr %4, align 1
  br label %58

53:                                               ; preds = %3
  %54 = load double, ptr %5, align 8, !tbaa !10
  %55 = load double, ptr %6, align 8, !tbaa !10
  %56 = load double, ptr %7, align 8, !tbaa !10
  %57 = call noundef zeroext i1 @_ZN20minEnclosingTriangleL14isAngleBetweenEddd(double noundef %54, double noundef %55, double noundef %56)
  store i1 %57, ptr %4, align 1
  br label %58

58:                                               ; preds = %53, %51, %33
  %59 = load i1, ptr %4, align 1
  ret i1 %59
}