; Function Attrs: mustprogress nofree norecurse nosync nounwind willreturn memory(none) uwtable
define internal fastcc noundef zeroext i1 @_ZN20minEnclosingTriangleL23isAngleBetweenNonReflexEddd(double noundef %0, double noundef %1, double noundef %2) unnamed_addr #12 {
  %4 = fsub double %1, %2
  %5 = tail call noundef double @llvm.fabs.f64(double %4)
  %6 = fcmp ogt double %5, 1.800000e+02
  br i1 %6, label %7, label %55

7:                                                ; preds = %3
  %8 = fcmp ogt double %1, %2
  br i1 %8, label %9, label %32

9:                                                ; preds = %7
  %10 = fcmp olt double %1, %0
  br i1 %10, label %11, label %20

11:                                               ; preds = %9
  %12 = fcmp olt double %0, 3.600000e+02
  br i1 %12, label %_ZN20minEnclosingTriangleL14isAngleBetweenEddd.exit, label %_ZN20minEnclosingTriangleL11lessOrEqualEdd.exit

_ZN20minEnclosingTriangleL11lessOrEqualEdd.exit:  ; preds = %11
  %13 = fadd double %0, -3.600000e+02
  %14 = tail call noundef double @llvm.fabs.f64(double %13)
  %15 = tail call noundef double @llvm.fabs.f64(double %0)
  %16 = fcmp ogt double %15, 1.000000e+00
  %.sroa.speculated2.i.i.i = select i1 %16, double %15, double 1.000000e+00
  %17 = fcmp olt double %.sroa.speculated2.i.i.i, 3.600000e+02
  %.sroa.speculated.i.i.i = select i1 %17, double 3.600000e+02, double %.sroa.speculated2.i.i.i
  %18 = fmul double %.sroa.speculated.i.i.i, 1.000000e-05
  %19 = fcmp ugt double %14, %18
  br i1 %19, label %20, label %_ZN20minEnclosingTriangleL14isAngleBetweenEddd.exit

20:                                               ; preds = %_ZN20minEnclosingTriangleL11lessOrEqualEdd.exit, %9
  %21 = fcmp ogt double %0, 0.000000e+00
  br i1 %21, label %_ZN20minEnclosingTriangleL11lessOrEqualEdd.exit26, label %22

22:                                               ; preds = %20
  %23 = fsub double 0.000000e+00, %0
  %24 = tail call noundef double @llvm.fabs.f64(double %23)
  %25 = tail call noundef double @llvm.fabs.f64(double %0)
  %26 = fcmp ogt double %25, 1.000000e+00
  %.sroa.speculated.i.i.i25 = select i1 %26, double %25, double 1.000000e+00
  %27 = fmul double %.sroa.speculated.i.i.i25, 1.000000e-05
  %28 = fcmp ole double %24, %27
  br label %_ZN20minEnclosingTriangleL11lessOrEqualEdd.exit26

_ZN20minEnclosingTriangleL11lessOrEqualEdd.exit26: ; preds = %20, %22
  %29 = phi i1 [ true, %20 ], [ %28, %22 ]
  %30 = fcmp olt double %0, %2
  %31 = and i1 %30, %29
  br label %_ZN20minEnclosingTriangleL14isAngleBetweenEddd.exit

32:                                               ; preds = %7
  %33 = fcmp olt double %2, %0
  br i1 %33, label %34, label %43

34:                                               ; preds = %32
  %35 = fcmp olt double %0, 3.600000e+02
  br i1 %35, label %_ZN20minEnclosingTriangleL14isAngleBetweenEddd.exit, label %_ZN20minEnclosingTriangleL11lessOrEqualEdd.exit29

_ZN20minEnclosingTriangleL11lessOrEqualEdd.exit29: ; preds = %34
  %36 = fadd double %0, -3.600000e+02
  %37 = tail call noundef double @llvm.fabs.f64(double %36)
  %38 = tail call noundef double @llvm.fabs.f64(double %0)
  %39 = fcmp ogt double %38, 1.000000e+00
  %.sroa.speculated2.i.i.i27 = select i1 %39, double %38, double 1.000000e+00
  %40 = fcmp olt double %.sroa.speculated2.i.i.i27, 3.600000e+02
  %.sroa.speculated.i.i.i28 = select i1 %40, double 3.600000e+02, double %.sroa.speculated2.i.i.i27
  %41 = fmul double %.sroa.speculated.i.i.i28, 1.000000e-05
  %42 = fcmp ugt double %37, %41
  br i1 %42, label %43, label %_ZN20minEnclosingTriangleL14isAngleBetweenEddd.exit

43:                                               ; preds = %_ZN20minEnclosingTriangleL11lessOrEqualEdd.exit29, %32
  %44 = fcmp ogt double %0, 0.000000e+00
  br i1 %44, label %_ZN20minEnclosingTriangleL11lessOrEqualEdd.exit31, label %45

45:                                               ; preds = %43
  %46 = fsub double 0.000000e+00, %0
  %47 = tail call noundef double @llvm.fabs.f64(double %46)
  %48 = tail call noundef double @llvm.fabs.f64(double %0)
  %49 = fcmp ogt double %48, 1.000000e+00
  %.sroa.speculated.i.i.i30 = select i1 %49, double %48, double 1.000000e+00
  %50 = fmul double %.sroa.speculated.i.i.i30, 1.000000e-05
  %51 = fcmp ole double %47, %50
  br label %_ZN20minEnclosingTriangleL11lessOrEqualEdd.exit31

_ZN20minEnclosingTriangleL11lessOrEqualEdd.exit31: ; preds = %43, %45
  %52 = phi i1 [ true, %43 ], [ %51, %45 ]
  %53 = fcmp olt double %0, %1
  %54 = and i1 %53, %52
  br label %_ZN20minEnclosingTriangleL14isAngleBetweenEddd.exit

55:                                               ; preds = %3
  %56 = fptosi double %4 to i32
  %57 = srem i32 %56, 180
  %58 = icmp sgt i32 %57, 0
  br i1 %58, label %59, label %63

59:                                               ; preds = %55
  %60 = fcmp olt double %2, %0
  %61 = fcmp olt double %0, %1
  %62 = and i1 %61, %60
  br label %_ZN20minEnclosingTriangleL14isAngleBetweenEddd.exit

63:                                               ; preds = %55
  %64 = fcmp olt double %1, %0
  %65 = fcmp olt double %0, %2
  %66 = and i1 %64, %65
  br label %_ZN20minEnclosingTriangleL14isAngleBetweenEddd.exit

_ZN20minEnclosingTriangleL14isAngleBetweenEddd.exit: ; preds = %34, %11, %63, %59, %_ZN20minEnclosingTriangleL11lessOrEqualEdd.exit29, %_ZN20minEnclosingTriangleL11lessOrEqualEdd.exit31, %_ZN20minEnclosingTriangleL11lessOrEqualEdd.exit, %_ZN20minEnclosingTriangleL11lessOrEqualEdd.exit26
  %.0 = phi i1 [ true, %_ZN20minEnclosingTriangleL11lessOrEqualEdd.exit ], [ %31, %_ZN20minEnclosingTriangleL11lessOrEqualEdd.exit26 ], [ true, %_ZN20minEnclosingTriangleL11lessOrEqualEdd.exit29 ], [ %54, %_ZN20minEnclosingTriangleL11lessOrEqualEdd.exit31 ], [ %62, %59 ], [ %66, %63 ], [ true, %11 ], [ true, %34 ]
  ret i1 %.0
}